target datalayout = "e-m:e-p270:32:32-p271:32:32-p272:64:64-i64:64-i128:128-f80:128-n8:16:32:64-S128"
target triple = "x86_64-unknown-linux-gnu"

%"class.std::function.17" = type { %"class.std::_Function_base", ptr }
%"class.std::_Function_base" = type { %"union.std::_Any_data", ptr }
%"union.std::_Any_data" = type { %"union.std::_Nocopy_types" }
%"union.std::_Nocopy_types" = type { { i64, i64 } }
%"class.hermes::vm::GCBase" = type <{ ptr, i32, [4 x i8], i64, %"class.hermes::vm::GCExecTrace", [7 x i8], ptr, ptr, %"class.std::shared_ptr", i32, [4 x i8], %"class.std::function", %"class.std::vector", i8, i8, i8, i8, [4 x i8], %"class.std::chrono::time_point", %"class.std::chrono::duration.0", i64, i64, %"struct.hermes::vm::GCBase::CumulativeHeapStats", %"class.std::__cxx11::basic_string", %"class.std::deque", ptr, %"class.std::recursive_mutex", %"class.hermes::vm::GCBase::IDTracker", [3 x i64], %"class.std::function.17", i32, i8, [3 x i8] }>
%"class.hermes::vm::GCExecTrace" = type { i8 }
%"class.std::shared_ptr" = type { %"class.std::__shared_ptr" }
%"class.std::__shared_ptr" = type { ptr, %"class.std::__shared_count" }
%"class.std::__shared_count" = type { ptr }
%"class.std::function" = type { %"class.std::_Function_base", ptr }
%"class.std::vector" = type { %"struct.std::_Vector_base" }
%"struct.std::_Vector_base" = type { %"struct.std::_Vector_base<hermes::vm::GCAnalyticsEvent, std::allocator<hermes::vm::GCAnalyticsEvent>>::_Vector_impl" }
%"struct.std::_Vector_base<hermes::vm::GCAnalyticsEvent, std::allocator<hermes::vm::GCAnalyticsEvent>>::_Vector_impl" = type { %"struct.std::_Vector_base<hermes::vm::GCAnalyticsEvent, std::allocator<hermes::vm::GCAnalyticsEvent>>::_Vector_impl_data" }
%"struct.std::_Vector_base<hermes::vm::GCAnalyticsEvent, std::allocator<hermes::vm::GCAnalyticsEvent>>::_Vector_impl_data" = type { ptr, ptr, ptr }
%"class.std::chrono::time_point" = type { %"class.std::chrono::duration" }
%"class.std::chrono::duration" = type { i64 }
%"class.std::chrono::duration.0" = type { i64 }
%"struct.hermes::vm::GCBase::CumulativeHeapStats" = type { i32, %"class.hermes::StatsAccumulator", %"class.hermes::StatsAccumulator", i32, %"class.hermes::StatsAccumulator.1", %"class.hermes::StatsAccumulator.1" }
%"class.hermes::StatsAccumulator" = type { i32, double, double, double, double }
%"class.hermes::StatsAccumulator.1" = type { i32, i64, i32, i32, double }
%"class.std::__cxx11::basic_string" = type { %"struct.std::__cxx11::basic_string<char>::_Alloc_hider", i64, %union.anon }
%"struct.std::__cxx11::basic_string<char>::_Alloc_hider" = type { ptr }
%union.anon = type { i64, [8 x i8] }
%"class.std::deque" = type { %"class.std::_Deque_base" }
%"class.std::_Deque_base" = type { %"struct.std::_Deque_base<hermes::vm::WeakRefSlot, std::allocator<hermes::vm::WeakRefSlot>>::_Deque_impl" }
%"struct.std::_Deque_base<hermes::vm::WeakRefSlot, std::allocator<hermes::vm::WeakRefSlot>>::_Deque_impl" = type { %"struct.std::_Deque_base<hermes::vm::WeakRefSlot, std::allocator<hermes::vm::WeakRefSlot>>::_Deque_impl_data" }
%"struct.std::_Deque_base<hermes::vm::WeakRefSlot, std::allocator<hermes::vm::WeakRefSlot>>::_Deque_impl_data" = type { ptr, i64, %"struct.std::_Deque_iterator", %"struct.std::_Deque_iterator" }
%"struct.std::_Deque_iterator" = type { ptr, ptr, ptr, ptr }
%"class.std::recursive_mutex" = type { %"class.std::__recursive_mutex_base" }
%"class.std::__recursive_mutex_base" = type { %union.pthread_mutex_t }
%union.pthread_mutex_t = type { %struct.__pthread_mutex_s }
%struct.__pthread_mutex_s = type { i32, i32, i32, i32, i32, i16, i16, %struct.__pthread_internal_list }
%struct.__pthread_internal_list = type { ptr, ptr }
%"class.hermes::vm::GCBase::IDTracker" = type { %"class.std::recursive_mutex", i32, [4 x i8], %"class.llvh::DenseMap", %"class.llvh::DenseMap", %"class.llvh::DenseMap.8", %"class.llvh::DenseMap.11", %"class.llvh::DenseMap", %"class.llvh::DenseMap.14" }
%"class.llvh::DenseMap.8" = type <{ ptr, i32, i32, i32, [4 x i8] }>
%"class.llvh::DenseMap.11" = type <{ ptr, i32, i32, i32, [4 x i8] }>
%"class.llvh::DenseMap" = type <{ ptr, i32, i32, i32, [4 x i8] }>
%"class.llvh::DenseMap.14" = type <{ ptr, i32, i32, i32, [4 x i8] }>
%"class.llvh::StringRef" = type { ptr, i64 }
%"class.std::error_code" = type { i32, ptr }
%"class.llvh::MutableArrayRef" = type { %"class.llvh::ArrayRef" }
%"class.llvh::ArrayRef" = type { ptr, i64 }

@.str.44 = private unnamed_addr constant [9 x i8] c"HermesGC\00", align 1
@.str.45 = private unnamed_addr constant [9 x i8] c"OOM: %s.\00", align 1
@.str.46 = private unnamed_addr constant [23 x i8] c"HermesGCOOMDetailBasic\00", align 1
@.str.47 = private unnamed_addr constant [4 x i8] c"OOM\00", align 1

; Function Attrs: mustprogress nounwind uwtable
define linkonce_odr noundef ptr @_ZNKSt12__shared_ptrIN6hermes2vm12CrashManagerELN9__gnu_cxx12_Lock_policyE2EE3getEv(ptr noundef nonnull align 8 dereferenceable(16) %this) #0 comdat align 2 {
entry:
  %this.addr = alloca ptr, align 8
  store ptr %this, ptr %this.addr, align 8
  %this1 = load ptr, ptr %this.addr, align 8
  %_M_ptr = getelementptr inbounds %"class.std::__shared_ptr", ptr %this1, i32 0, i32 0
  %0 = load ptr, ptr %_M_ptr, align 8
  ret ptr %0
}

; Function Attrs: mustprogress nounwind uwtable
define linkonce_odr noundef ptr @_ZNKSt19__shared_ptr_accessIN6hermes2vm12CrashManagerELN9__gnu_cxx12_Lock_policyE2ELb0ELb0EE6_M_getEv(ptr noundef nonnull align 1 dereferenceable(1) %this) #0 comdat align 2 {
entry:
  %this.addr = alloca ptr, align 8
  store ptr %this, ptr %this.addr, align 8
  %this1 = load ptr, ptr %this.addr, align 8
  %call = call noundef ptr @_ZNKSt12__shared_ptrIN6hermes2vm12CrashManagerELN9__gnu_cxx12_Lock_policyE2EE3getEv(ptr noundef nonnull align 8 dereferenceable(16) %this1) #14
  ret ptr %call
}

; Function Attrs: mustprogress nounwind uwtable
define linkonce_odr hidden void @_ZN4llvh8ArrayRefIcEC2ILm400EEERAT__Kc(ptr noundef nonnull align 8 dereferenceable(16) %this, ptr noundef nonnull align 1 dereferenceable(400) %Arr) unnamed_addr #0 comdat align 2 {
entry:
  %this.addr = alloca ptr, align 8
  %Arr.addr = alloca ptr, align 8
  store ptr %this, ptr %this.addr, align 8
  store ptr %Arr, ptr %Arr.addr, align 8
  %this1 = load ptr, ptr %this.addr, align 8
  %Data = getelementptr inbounds %"class.llvh::ArrayRef", ptr %this1, i32 0, i32 0
  %0 = load ptr, ptr %Arr.addr, align 8
  %arraydecay = getelementptr inbounds [400 x i8], ptr %0, i64 0, i64 0
  store ptr %arraydecay, ptr %Data, align 8
  %Length = getelementptr inbounds %"class.llvh::ArrayRef", ptr %this1, i32 0, i32 1
  store i64 400, ptr %Length, align 8
  ret void
}

; Function Attrs: mustprogress nounwind uwtable
define linkonce_odr noundef ptr @_ZNKSt19__shared_ptr_accessIN6hermes2vm12CrashManagerELN9__gnu_cxx12_Lock_policyE2ELb0ELb0EEptEv(ptr noundef nonnull align 1 dereferenceable(1) %this) #0 comdat align 2 {
entry:
  %this.addr = alloca ptr, align 8
  store ptr %this, ptr %this.addr, align 8
  %this1 = load ptr, ptr %this.addr, align 8
  %call = call noundef ptr @_ZNKSt19__shared_ptr_accessIN6hermes2vm12CrashManagerELN9__gnu_cxx12_Lock_policyE2ELb0ELb0EE6_M_getEv(ptr noundef nonnull align 1 dereferenceable(1) %this1) #14
  ret ptr %call
}

; Function Attrs: mustprogress nounwind uwtable
define linkonce_odr hidden void @_ZN4llvh15MutableArrayRefIcEC2ILm400EEERAT__c(ptr noundef nonnull align 8 dereferenceable(16) %this, ptr noundef nonnull align 1 dereferenceable(400) %Arr) unnamed_addr #0 comdat align 2 {
entry:
  %this.addr = alloca ptr, align 8
  %Arr.addr = alloca ptr, align 8
  store ptr %this, ptr %this.addr, align 8
  store ptr %Arr, ptr %Arr.addr, align 8
  %this1 = load ptr, ptr %this.addr, align 8
  %0 = load ptr, ptr %Arr.addr, align 8
  call void @_ZN4llvh8ArrayRefIcEC2ILm400EEERAT__Kc(ptr noundef nonnull align 8 dereferenceable(16) %this1, ptr noundef nonnull align 1 dereferenceable(400) %0)
  ret void
}

; Function Attrs: mustprogress noreturn nounwind uwtable
define hidden void @_ZN6hermes2vm6GCBase3oomESt10error_code(ptr noundef nonnull align 8 dereferenceable(741) %this, i32 %reason.coerce0, ptr %reason.coerce1) #5 align 2 {
entry:
  %this.addr.i = alloca ptr, align 8
  %Str.addr.i = alloca ptr, align 8
  %reason = alloca %"class.std::error_code", align 8
  %this.addr = alloca ptr, align 8
  %detailBuffer = alloca [400 x i8], align 16
  %agg.tmp = alloca %"class.llvh::MutableArrayRef", align 8
  %agg.tmp2 = alloca %"class.std::error_code", align 8
  %agg.tmp6 = alloca %"class.llvh::StringRef", align 8
  %agg.tmp7 = alloca %"class.std::error_code", align 8
  %0 = getelementptr inbounds { i32, ptr }, ptr %reason, i32 0, i32 0
  store i32 %reason.coerce0, ptr %0, align 8
  %1 = getelementptr inbounds { i32, ptr }, ptr %reason, i32 0, i32 1
  store ptr %reason.coerce1, ptr %1, align 8
  store ptr %this, ptr %this.addr, align 8
  %this1 = load ptr, ptr %this.addr, align 8
  %hasOOMed_ = getelementptr inbounds %"class.hermes::vm::GCBase", ptr %this1, i32 0, i32 15
  store i8 1, ptr %hasOOMed_, align 2
  call void @_ZN4llvh15MutableArrayRefIcEC2ILm400EEERAT__c(ptr noundef nonnull align 8 dereferenceable(16) %agg.tmp, ptr noundef nonnull align 1 dereferenceable(400) %detailBuffer)
  call void @llvm.memcpy.p0.p0.i64(ptr align 8 %agg.tmp2, ptr align 8 %reason, i64 16, i1 false)
  %2 = getelementptr inbounds { ptr, i64 }, ptr %agg.tmp, i32 0, i32 0
  %3 = load ptr, ptr %2, align 8
  %4 = getelementptr inbounds { ptr, i64 }, ptr %agg.tmp, i32 0, i32 1
  %5 = load i64, ptr %4, align 8
  %6 = getelementptr inbounds { i32, ptr }, ptr %agg.tmp2, i32 0, i32 0
  %7 = load i32, ptr %6, align 8
  %8 = getelementptr inbounds { i32, ptr }, ptr %agg.tmp2, i32 0, i32 1
  %9 = load ptr, ptr %8, align 8
  %vtable = load ptr, ptr %this1, align 8
  %vfn = getelementptr inbounds ptr, ptr %vtable, i64 20
  %10 = load ptr, ptr %vfn, align 8
  call void %10(ptr noundef nonnull align 8 dereferenceable(741) %this1, ptr %3, i64 %5, i32 %7, ptr %9)
  %arraydecay = getelementptr inbounds [400 x i8], ptr %detailBuffer, i64 0, i64 0
  call void (ptr, ptr, ...) @_ZN6hermes9hermesLogEPKcS1_z(ptr noundef @.str.44, ptr noundef @.str.45, ptr noundef %arraydecay)
  %crashMgr_ = getelementptr inbounds %"class.hermes::vm::GCBase", ptr %this1, i32 0, i32 8
  %call = call noundef ptr @_ZNKSt19__shared_ptr_accessIN6hermes2vm12CrashManagerELN9__gnu_cxx12_Lock_policyE2ELb0ELb0EEptEv(ptr noundef nonnull align 1 dereferenceable(1) %crashMgr_) #14
  %arraydecay3 = getelementptr inbounds [400 x i8], ptr %detailBuffer, i64 0, i64 0
  %vtable4 = load ptr, ptr %call, align 8
  %vfn5 = getelementptr inbounds ptr, ptr %vtable4, i64 2
  %11 = load ptr, ptr %vfn5, align 8
  call void %11(ptr noundef nonnull align 8 dereferenceable(8) %call, ptr noundef @.str.46, ptr noundef %arraydecay3)
  store ptr %agg.tmp6, ptr %this.addr.i, align 8
  store ptr @.str.47, ptr %Str.addr.i, align 8
  %this1.i = load ptr, ptr %this.addr.i, align 8
  %12 = load ptr, ptr %Str.addr.i, align 8
  store ptr %12, ptr %this1.i, align 8
  %Length.i = getelementptr inbounds %"class.llvh::StringRef", ptr %this1.i, i32 0, i32 1
  %13 = load ptr, ptr %Str.addr.i, align 8
  %tobool.i = icmp ne ptr %13, null
  br i1 %tobool.i, label %cond.true.i, label %cond.false.i

cond.true.i:                                      ; preds = %entry
  %14 = load ptr, ptr %Str.addr.i, align 8
  %call.i = call i64 @strlen(ptr noundef %14) #16
  br label %_ZN4llvh9StringRefC2EPKc.exit

cond.false.i:                                     ; preds = %entry
  br label %_ZN4llvh9StringRefC2EPKc.exit

_ZN4llvh9StringRefC2EPKc.exit:                    ; preds = %cond.false.i, %cond.true.i
  %cond.i = phi i64 [ %call.i, %cond.true.i ], [ 0, %cond.false.i ]
  store i64 %cond.i, ptr %Length.i, align 8
  call void @llvm.memcpy.p0.p0.i64(ptr align 8 %agg.tmp7, ptr align 8 %reason, i64 16, i1 false)
  %15 = getelementptr inbounds { ptr, i64 }, ptr %agg.tmp6, i32 0, i32 0
  %16 = load ptr, ptr %15, align 8
  %17 = getelementptr inbounds { ptr, i64 }, ptr %agg.tmp6, i32 0, i32 1
  %18 = load i64, ptr %17, align 8
  %19 = getelementptr inbounds { i32, ptr }, ptr %agg.tmp7, i32 0, i32 0
  %20 = load i32, ptr %19, align 8
  %21 = getelementptr inbounds { i32, ptr }, ptr %agg.tmp7, i32 0, i32 1
  %22 = load ptr, ptr %21, align 8
  call void @_ZN6hermes12hermes_fatalEN4llvh9StringRefESt10error_code(ptr %16, i64 %18, i32 %20, ptr %22) #15
  unreachable
}