; Function Attrs: mustprogress noreturn nounwind uwtable
define hidden void @_ZN6hermes2vm6GCBase3oomESt10error_code(ptr noundef nonnull align 8 dereferenceable(741) %this, i32 %reason.coerce0, ptr %reason.coerce1) local_unnamed_addr #6 align 2 {
entry:
  %detailBuffer = alloca [400 x i8], align 16
  %hasOOMed_ = getelementptr inbounds i8, ptr %this, i64 130
  store i8 1, ptr %hasOOMed_, align 2
  %vtable = load ptr, ptr %this, align 8
  %vfn = getelementptr inbounds i8, ptr %vtable, i64 160
  %0 = load ptr, ptr %vfn, align 8
  call void %0(ptr noundef nonnull align 8 dereferenceable(741) %this, ptr nonnull %detailBuffer, i64 400, i32 %reason.coerce0, ptr %reason.coerce1) #27
  call void (ptr, ptr, ...) @_ZN6hermes9hermesLogEPKcS1_z(ptr noundef nonnull @.str.44, ptr noundef nonnull @.str.45, ptr noundef nonnull %detailBuffer) #27
  %crashMgr_ = getelementptr inbounds i8, ptr %this, i64 48
  %1 = load ptr, ptr %crashMgr_, align 8
  %vtable4 = load ptr, ptr %1, align 8
  %vfn5 = getelementptr inbounds i8, ptr %vtable4, i64 16
  %2 = load ptr, ptr %vfn5, align 8
  call void %2(ptr noundef nonnull align 8 dereferenceable(8) %1, ptr noundef nonnull @.str.46, ptr noundef nonnull %detailBuffer) #27
  call void @_ZN6hermes12hermes_fatalEN4llvh9StringRefESt10error_code(ptr nonnull @.str.47, i64 3, i32 %reason.coerce0, ptr %reason.coerce1) #29
  unreachable
}